(lp1
ccopy_reg
_reconstructor
p2
(cBox2D.Box2D
b2World
p3
c__builtin__
object
p4
NtRp5
(dp6
S'worldAABB'
p7
g2
(cBox2D.Box2D
b2AABB
p8
g4
NtRp9
(dp10
S'lowerBound'
p11
g2
(cBox2D.Box2D
b2Vec2
p12
g4
NtRp13
(dp14
S'y'
F-100
sS'x'
F-200
sbsS'upperBound'
p15
g2
(g12
g4
NtRp16
(dp17
S'y'
F200
sS'x'
F200
sbsbsS'bodyList'
p18
(lp19
g2
(cBox2D.Box2D
b2Body
p20
g4
NtRp21
(dp22
S'isBullet'
p23
I00
sS'massData'
p24
g2
(cBox2D.Box2D
b2MassData
p25
g4
NtRp26
(dp27
S'I'
F0
sS'mass'
p28
F0
sS'center'
p29
g2
(g12
g4
NtRp30
(dp31
S'y'
F0
sS'x'
F0
sbsbsS'angle'
p32
F0
sS'fixedRotation'
p33
I00
sS'linearDamping'
p34
F0
sS'userData'
p35
NsS'allowSleep'
p36
I01
sS'angularVelocity'
p37
F0
sS'shapeList'
p38
(lp39
g2
(cBox2D.Box2D
b2PolygonShape
p40
g4
NtRp41
(dp42
g35
NsS'density'
p43
F0
sS'isSensor'
p44
I00
sS'vertices'
p45
(lp46
(F-50
F-10
tp47
a(F50
F-10
tp48
a(F50
F10
tp49
a(F-50
F10
tp50
asS'friction'
p51
F0.20000000298023224
sS'filter'
p52
g2
(cBox2D.Box2D
b2FilterData
p53
g4
NtRp54
(dp55
S'maskBits'
p56
I65535
sS'groupIndex'
p57
I0
sS'categoryBits'
p58
I1
sbsS'restitution'
p59
F0
sbasS'isSleeping'
p60
I00
sS'angularDamping'
p61
F0
sS'position'
p62
g2
(g12
g4
NtRp63
(dp64
S'y'
F-10
sS'x'
F0
sbsS'linearVelocity'
p65
g2
(g12
g4
NtRp66
(dp67
S'y'
F0
sS'x'
F0
sbsbag2
(g20
g4
NtRp68
(dp69
g23
I00
sg24
g2
(g25
g4
NtRp70
(dp71
S'I'
F0.83333337306976318
sg28
F5
sg29
g2
(g12
g4
NtRp72
(dp73
S'y'
F0
sS'x'
F0
sbsbsg32
F0.13723009824752808
sg33
I00
sg34
F0
sg35
Nsg36
I01
sg37
F1.0670644044876099
sg38
(lp74
g2
(g40
g4
NtRp75
(dp76
g35
Nsg43
F5
sg44
I00
sg45
(lp77
(F-0.5
F-0.5
tp78
a(F0.5
F-0.5
tp79
a(F0.5
F0.5
tp80
a(F-0.5
F0.5
tp81
asg51
F0.20000000298023224
sg52
g2
(g53
g4
NtRp82
(dp83
g56
I65535
sg57
I0
sg58
I1
sbsg59
F0
sbasg60
I00
sg61
F0
sg62
g2
(g12
g4
NtRp84
(dp85
S'y'
F4.9506378173828125
sS'x'
F-4.9847636222839355
sbsg65
g2
(g12
g4
NtRp86
(dp87
S'y'
F-0.051486153155565262
sS'x'
F0.0037257550284266472
sbsbag2
(g20
g4
NtRp88
(dp89
g23
I00
sg24
g2
(g25
g4
NtRp90
(dp91
S'I'
F0.83333337306976318
sg28
F5
sg29
g2
(g12
g4
NtRp92
(dp93
S'y'
F0
sS'x'
F0
sbsbsg32
F-0.13723026216030121
sg33
I00
sg34
F0
sg35
Nsg36
I01
sg37
F-1.0670629739761353
sg38
(lp94
g2
(g40
g4
NtRp95
(dp96
g35
Nsg43
F5
sg44
I00
sg45
(lp97
(F-0.5
F-0.5
tp98
a(F0.5
F-0.5
tp99
a(F0.5
F0.5
tp100
a(F-0.5
F0.5
tp101
asg51
F0.20000000298023224
sg52
g2
(g53
g4
NtRp102
(dp103
g56
I65535
sg57
I0
sg58
I1
sbsg59
F0
sbasg60
I00
sg61
F0
sg62
g2
(g12
g4
NtRp104
(dp105
S'y'
F4.9506373405456543
sS'x'
F4.9847636222839355
sbsg65
g2
(g12
g4
NtRp106
(dp107
S'y'
F-0.051486458629369736
sS'x'
F-0.0037254334893077612
sbsbag2
(g20
g4
NtRp108
(dp109
g23
I00
sg24
g2
(g25
g4
NtRp110
(dp111
S'I'
F0.83333337306976318
sg28
F5
sg29
g2
(g12
g4
NtRp112
(dp113
S'y'
F0
sS'x'
F0
sbsbsg32
F0.008322935551404953
sg33
I00
sg34
F0
sg35
Nsg36
I01
sg37
F-0.043074753135442734
sg38
(lp114
g2
(g40
g4
NtRp115
(dp116
g35
Nsg43
F5
sg44
I00
sg45
(lp117
(F-0.5
F-0.5
tp118
a(F0.5
F-0.5
tp119
a(F0.5
F0.5
tp120
a(F-0.5
F0.5
tp121
asg51
F0.20000000298023224
sg52
g2
(g53
g4
NtRp122
(dp123
g56
I65535
sg57
I0
sg58
I1
sbsg59
F0
sbasg60
I00
sg61
F0
sg62
g2
(g12
g4
NtRp124
(dp125
S'y'
F14.951677322387695
sS'x'
F5.0156054496765137
sbsg65
g2
(g12
g4
NtRp126
(dp127
S'y'
F-0.044206161051988602
sS'x'
F0.010378838516771793
sbsbag2
(g20
g4
NtRp128
(dp129
g23
I00
sg24
g2
(g25
g4
NtRp130
(dp131
S'I'
F0.83333337306976318
sg28
F5
sg29
g2
(g12
g4
NtRp132
(dp133
S'y'
F0
sS'x'
F0
sbsbsg32
F-0.0083229467272758484
sg33
I00
sg34
F0
sg35
Nsg36
I01
sg37
F0.043074525892734528
sg38
(lp134
g2
(g40
g4
NtRp135
(dp136
g35
Nsg43
F5
sg44
I00
sg45
(lp137
(F-0.5
F-0.5
tp138
a(F0.5
F-0.5
tp139
a(F0.5
F0.5
tp140
a(F-0.5
F0.5
tp141
asg51
F0.20000000298023224
sg52
g2
(g53
g4
NtRp142
(dp143
g56
I65535
sg57
I0
sg58
I1
sbsg59
F0
sbasg60
I00
sg61
F0
sg62
g2
(g12
g4
NtRp144
(dp145
S'y'
F14.951677322387695
sS'x'
F-5.0156059265136719
sbsg65
g2
(g12
g4
NtRp146
(dp147
S'y'
F-0.044209308922290802
sS'x'
F-0.010375554673373699
sbsbasS'gravity'
p148
g2
(g12
g4
NtRp149
(dp150
S'y'
F-10
sS'x'
F0
sbsS'controllerList'
p151
(lp152
sS'doSleep'
p153
I01
sS'jointList'
p154
(lp155
(dp156
g35
NsS'_type'
p157
S'Distance'
p158
sS'frequencyHz'
p159
F4
sS'localAnchor1'
p160
g2
(g12
g4
NtRp161
(dp162
S'y'
F10
sS'x'
F-10
sbsS'localAnchor2'
p163
g2
(g12
g4
NtRp164
(dp165
S'y'
F-0.5
sS'x'
F-0.5
sbsS'collideConnected'
p166
I00
sS'length'
p167
F6.3639612197875977
sS'dampingRatio'
p168
F0.5
sS'body1'
p169
I1
sS'body2'
p170
I2
sa(dp171
g35
Nsg157
g158
sg159
F4
sg160
g2
(g12
g4
NtRp172
(dp173
S'y'
F10
sS'x'
F10
sbsg163
g2
(g12
g4
NtRp174
(dp175
S'y'
F-0.5
sS'x'
F0.5
sbsg166
I00
sg167
F6.3639612197875977
sg168
F0.5
sg169
I1
sg170
I3
sa(dp176
g35
Nsg157
g158
sg159
F4
sg160
g2
(g12
g4
NtRp177
(dp178
S'y'
F30
sS'x'
F10
sbsg163
g2
(g12
g4
NtRp179
(dp180
S'y'
F0.5
sS'x'
F0.5
sbsg166
I00
sg167
F6.3639612197875977
sg168
F0.5
sg169
I1
sg170
I4
sa(dp181
g35
Nsg157
g158
sg159
F4
sg160
g2
(g12
g4
NtRp182
(dp183
S'y'
F30
sS'x'
F-10
sbsg163
g2
(g12
g4
NtRp184
(dp185
S'y'
F0.5
sS'x'
F-0.5
sbsg166
I00
sg167
F6.3639612197875977
sg168
F0.5
sg169
I1
sg170
I5
sa(dp186
g35
Nsg157
g158
sg159
F4
sg160
g2
(g12
g4
NtRp187
(dp188
S'y'
F0
sS'x'
F0.5
sbsg163
g2
(g12
g4
NtRp189
(dp190
S'y'
F0
sS'x'
F-0.5
sbsg166
I00
sg167
F9
sg168
F0.5
sg169
I2
sg170
I3
sa(dp191
g35
Nsg157
g158
sg159
F4
sg160
g2
(g12
g4
NtRp192
(dp193
S'y'
F0.5
sS'x'
F0
sbsg163
g2
(g12
g4
NtRp194
(dp195
S'y'
F-0.5
sS'x'
F0
sbsg166
I00
sg167
F9
sg168
F0.5
sg169
I3
sg170
I4
sa(dp196
g35
Nsg157
g158
sg159
F4
sg160
g2
(g12
g4
NtRp197
(dp198
S'y'
F0
sS'x'
F-0.5
sbsg163
g2
(g12
g4
NtRp199
(dp200
S'y'
F0
sS'x'
F0.5
sbsg166
I00
sg167
F9
sg168
F0.5
sg169
I4
sg170
I5
sa(dp201
g35
Nsg157
g158
sg159
F4
sg160
g2
(g12
g4
NtRp202
(dp203
S'y'
F-0.5
sS'x'
F0
sbsg163
g2
(g12
g4
NtRp204
(dp205
S'y'
F0.5
sS'x'
F0
sbsg166
I00
sg167
F9
sg168
F0.5
sg169
I5
sg170
I2
sasS'groundBody'
p206
g2
(g20
g4
NtRp207
(dp208
g23
I00
sg24
g2
(g25
g4
NtRp209
(dp210
S'I'
F0
sg28
F0
sg29
g2
(g12
g4
NtRp211
(dp212
S'y'
F0
sS'x'
F0
sbsbsg32
F0
sg33
I00
sg34
F0
sg35
Nsg36
I01
sg37
F0
sg38
(lp213
sg60
I00
sg61
F0
sg62
g2
(g12
g4
NtRp214
(dp215
S'y'
F0
sS'x'
F0
sbsg65
g2
(g12
g4
NtRp216
(dp217
S'y'
F0
sS'x'
F0
sbsbsba(dp218
S'joints'
p219
(lp220
(dp221
S'joint'
p222
I0
sS'pickle_type'
p223
S'b2Joint'
p224
sa(dp225
g222
I1
sg223
g224
sa(dp226
g222
I2
sg223
g224
sa(dp227
g222
I3
sg223
g224
sa(dp228
g222
I4
sg223
g224
sa(dp229
g222
I5
sg223
g224
sa(dp230
g222
I6
sg223
g224
sa(dp231
g222
I7
sg223
g224
sasS'bodies'
p232
(lp233
(dp234
S'body'
p235
I2
sg223
S'b2Body'
p236
sa(dp237
g235
I3
sg223
g236
sa(dp238
g235
I4
sg223
g236
sa(dp239
g235
I5
sg223
g236
sasa.